; ModuleID = '57/1440.c'
source_filename = "57/1440.c"
target datalayout = "e-m:e-p270:32:32-p271:32:32-p272:64:64-i64:64-f80:128-n8:16:32:64-S128"
target triple = "x86_64-pc-linux-gnu"

@.str = private unnamed_addr constant [3 x i8] c"%d\00", align 1
@.str.1 = private unnamed_addr constant [3 x i8] c"%s\00", align 1
@.str.2 = private unnamed_addr constant [2 x i8] c"\0A\00", align 1

; Function Attrs: noinline nounwind uwtable
define dso_local void @main() #0 {
  %1 = alloca [50 x [20 x i8]], align 16
  %2 = alloca [50 x [20 x i8]], align 16
  %3 = alloca i32, align 4
  %4 = alloca i32, align 4
  %5 = alloca i32, align 4
  %6 = alloca [50 x i32], align 16
  %7 = call i32 (i8*, ...) @__isoc99_scanf(i8* getelementptr inbounds ([3 x i8], [3 x i8]* @.str, i64 0, i64 0), i32* %4)
  store i32 0, i32* %3, align 4
  br label %8

8:                                                ; preds = %27, %0
  %9 = load i32, i32* %3, align 4
  %10 = load i32, i32* %4, align 4
  %11 = icmp slt i32 %9, %10
  br i1 %11, label %12, label %30

12:                                               ; preds = %8
  %13 = load i32, i32* %3, align 4
  %14 = sext i32 %13 to i64
  %15 = getelementptr inbounds [50 x [20 x i8]], [50 x [20 x i8]]* %1, i64 0, i64 %14
  %16 = getelementptr inbounds [20 x i8], [20 x i8]* %15, i64 0, i64 0
  %17 = call i32 (i8*, ...) @__isoc99_scanf(i8* getelementptr inbounds ([3 x i8], [3 x i8]* @.str.1, i64 0, i64 0), i8* %16)
  %18 = load i32, i32* %3, align 4
  %19 = sext i32 %18 to i64
  %20 = getelementptr inbounds [50 x [20 x i8]], [50 x [20 x i8]]* %1, i64 0, i64 %19
  %21 = getelementptr inbounds [20 x i8], [20 x i8]* %20, i64 0, i64 0
  %22 = call i64 @strlen(i8* %21) #3
  %23 = trunc i64 %22 to i32
  %24 = load i32, i32* %3, align 4
  %25 = sext i32 %24 to i64
  %26 = getelementptr inbounds [50 x i32], [50 x i32]* %6, i64 0, i64 %25
  store i32 %23, i32* %26, align 4
  br label %27

27:                                               ; preds = %12
  %28 = load i32, i32* %3, align 4
  %29 = add nsw i32 %28, 1
  store i32 %29, i32* %3, align 4
  br label %8

30:                                               ; preds = %8
  store i32 0, i32* %3, align 4
  br label %31

31:                                               ; preds = %235, %30
  %32 = load i32, i32* %3, align 4
  %33 = load i32, i32* %4, align 4
  %34 = icmp slt i32 %32, %33
  br i1 %34, label %35, label %238

35:                                               ; preds = %31
  %36 = load i32, i32* %3, align 4
  %37 = sext i32 %36 to i64
  %38 = getelementptr inbounds [50 x [20 x i8]], [50 x [20 x i8]]* %1, i64 0, i64 %37
  %39 = load i32, i32* %3, align 4
  %40 = sext i32 %39 to i64
  %41 = getelementptr inbounds [50 x i32], [50 x i32]* %6, i64 0, i64 %40
  %42 = load i32, i32* %41, align 4
  %43 = sub nsw i32 %42, 2
  %44 = sext i32 %43 to i64
  %45 = getelementptr inbounds [20 x i8], [20 x i8]* %38, i64 0, i64 %44
  %46 = load i8, i8* %45, align 1
  %47 = sext i8 %46 to i32
  %48 = icmp eq i32 %47, 101
  br i1 %48, label %49, label %96

49:                                               ; preds = %35
  %50 = load i32, i32* %3, align 4
  %51 = sext i32 %50 to i64
  %52 = getelementptr inbounds [50 x [20 x i8]], [50 x [20 x i8]]* %1, i64 0, i64 %51
  %53 = load i32, i32* %3, align 4
  %54 = sext i32 %53 to i64
  %55 = getelementptr inbounds [50 x i32], [50 x i32]* %6, i64 0, i64 %54
  %56 = load i32, i32* %55, align 4
  %57 = sub nsw i32 %56, 1
  %58 = sext i32 %57 to i64
  %59 = getelementptr inbounds [20 x i8], [20 x i8]* %52, i64 0, i64 %58
  %60 = load i8, i8* %59, align 1
  %61 = sext i8 %60 to i32
  %62 = icmp eq i32 %61, 114
  br i1 %62, label %63, label %96

63:                                               ; preds = %49
  store i32 0, i32* %5, align 4
  br label %64

64:                                               ; preds = %86, %63
  %65 = load i32, i32* %5, align 4
  %66 = load i32, i32* %3, align 4
  %67 = sext i32 %66 to i64
  %68 = getelementptr inbounds [50 x i32], [50 x i32]* %6, i64 0, i64 %67
  %69 = load i32, i32* %68, align 4
  %70 = sub nsw i32 %69, 2
  %71 = icmp slt i32 %65, %70
  br i1 %71, label %72, label %89

72:                                               ; preds = %64
  %73 = load i32, i32* %3, align 4
  %74 = sext i32 %73 to i64
  %75 = getelementptr inbounds [50 x [20 x i8]], [50 x [20 x i8]]* %1, i64 0, i64 %74
  %76 = load i32, i32* %5, align 4
  %77 = sext i32 %76 to i64
  %78 = getelementptr inbounds [20 x i8], [20 x i8]* %75, i64 0, i64 %77
  %79 = load i8, i8* %78, align 1
  %80 = load i32, i32* %3, align 4
  %81 = sext i32 %80 to i64
  %82 = getelementptr inbounds [50 x [20 x i8]], [50 x [20 x i8]]* %2, i64 0, i64 %81
  %83 = load i32, i32* %5, align 4
  %84 = sext i32 %83 to i64
  %85 = getelementptr inbounds [20 x i8], [20 x i8]* %82, i64 0, i64 %84
  store i8 %79, i8* %85, align 1
  br label %86

86:                                               ; preds = %72
  %87 = load i32, i32* %5, align 4
  %88 = add nsw i32 %87, 1
  store i32 %88, i32* %5, align 4
  br label %64

89:                                               ; preds = %64
  %90 = load i32, i32* %3, align 4
  %91 = sext i32 %90 to i64
  %92 = getelementptr inbounds [50 x [20 x i8]], [50 x [20 x i8]]* %2, i64 0, i64 %91
  %93 = load i32, i32* %5, align 4
  %94 = sext i32 %93 to i64
  %95 = getelementptr inbounds [20 x i8], [20 x i8]* %92, i64 0, i64 %94
  store i8 0, i8* %95, align 1
  br label %234

96:                                               ; preds = %49, %35
  %97 = load i32, i32* %3, align 4
  %98 = sext i32 %97 to i64
  %99 = getelementptr inbounds [50 x [20 x i8]], [50 x [20 x i8]]* %1, i64 0, i64 %98
  %100 = load i32, i32* %3, align 4
  %101 = sext i32 %100 to i64
  %102 = getelementptr inbounds [50 x i32], [50 x i32]* %6, i64 0, i64 %101
  %103 = load i32, i32* %102, align 4
  %104 = sub nsw i32 %103, 1
  %105 = sext i32 %104 to i64
  %106 = getelementptr inbounds [20 x i8], [20 x i8]* %99, i64 0, i64 %105
  %107 = load i8, i8* %106, align 1
  %108 = sext i8 %107 to i32
  %109 = icmp eq i32 %108, 103
  br i1 %109, label %110, label %171

110:                                              ; preds = %96
  %111 = load i32, i32* %3, align 4
  %112 = sext i32 %111 to i64
  %113 = getelementptr inbounds [50 x [20 x i8]], [50 x [20 x i8]]* %1, i64 0, i64 %112
  %114 = load i32, i32* %3, align 4
  %115 = sext i32 %114 to i64
  %116 = getelementptr inbounds [50 x i32], [50 x i32]* %6, i64 0, i64 %115
  %117 = load i32, i32* %116, align 4
  %118 = sub nsw i32 %117, 2
  %119 = sext i32 %118 to i64
  %120 = getelementptr inbounds [20 x i8], [20 x i8]* %113, i64 0, i64 %119
  %121 = load i8, i8* %120, align 1
  %122 = sext i8 %121 to i32
  %123 = icmp eq i32 %122, 110
  br i1 %123, label %124, label %171

124:                                              ; preds = %110
  %125 = load i32, i32* %3, align 4
  %126 = sext i32 %125 to i64
  %127 = getelementptr inbounds [50 x [20 x i8]], [50 x [20 x i8]]* %1, i64 0, i64 %126
  %128 = load i32, i32* %3, align 4
  %129 = sext i32 %128 to i64
  %130 = getelementptr inbounds [50 x i32], [50 x i32]* %6, i64 0, i64 %129
  %131 = load i32, i32* %130, align 4
  %132 = sub nsw i32 %131, 3
  %133 = sext i32 %132 to i64
  %134 = getelementptr inbounds [20 x i8], [20 x i8]* %127, i64 0, i64 %133
  %135 = load i8, i8* %134, align 1
  %136 = sext i8 %135 to i32
  %137 = icmp eq i32 %136, 105
  br i1 %137, label %138, label %171

138:                                              ; preds = %124
  store i32 0, i32* %5, align 4
  br label %139

139:                                              ; preds = %161, %138
  %140 = load i32, i32* %5, align 4
  %141 = load i32, i32* %3, align 4
  %142 = sext i32 %141 to i64
  %143 = getelementptr inbounds [50 x i32], [50 x i32]* %6, i64 0, i64 %142
  %144 = load i32, i32* %143, align 4
  %145 = sub nsw i32 %144, 3
  %146 = icmp slt i32 %140, %145
  br i1 %146, label %147, label %164

147:                                              ; preds = %139
  %148 = load i32, i32* %3, align 4
  %149 = sext i32 %148 to i64
  %150 = getelementptr inbounds [50 x [20 x i8]], [50 x [20 x i8]]* %1, i64 0, i64 %149
  %151 = load i32, i32* %5, align 4
  %152 = sext i32 %151 to i64
  %153 = getelementptr inbounds [20 x i8], [20 x i8]* %150, i64 0, i64 %152
  %154 = load i8, i8* %153, align 1
  %155 = load i32, i32* %3, align 4
  %156 = sext i32 %155 to i64
  %157 = getelementptr inbounds [50 x [20 x i8]], [50 x [20 x i8]]* %2, i64 0, i64 %156
  %158 = load i32, i32* %5, align 4
  %159 = sext i32 %158 to i64
  %160 = getelementptr inbounds [20 x i8], [20 x i8]* %157, i64 0, i64 %159
  store i8 %154, i8* %160, align 1
  br label %161

161:                                              ; preds = %147
  %162 = load i32, i32* %5, align 4
  %163 = add nsw i32 %162, 1
  store i32 %163, i32* %5, align 4
  br label %139

164:                                              ; preds = %139
  %165 = load i32, i32* %3, align 4
  %166 = sext i32 %165 to i64
  %167 = getelementptr inbounds [50 x [20 x i8]], [50 x [20 x i8]]* %2, i64 0, i64 %166
  %168 = load i32, i32* %5, align 4
  %169 = sext i32 %168 to i64
  %170 = getelementptr inbounds [20 x i8], [20 x i8]* %167, i64 0, i64 %169
  store i8 0, i8* %170, align 1
  br label %233

171:                                              ; preds = %124, %110, %96
  %172 = load i32, i32* %3, align 4
  %173 = sext i32 %172 to i64
  %174 = getelementptr inbounds [50 x [20 x i8]], [50 x [20 x i8]]* %1, i64 0, i64 %173
  %175 = load i32, i32* %3, align 4
  %176 = sext i32 %175 to i64
  %177 = getelementptr inbounds [50 x i32], [50 x i32]* %6, i64 0, i64 %176
  %178 = load i32, i32* %177, align 4
  %179 = sub nsw i32 %178, 2
  %180 = sext i32 %179 to i64
  %181 = getelementptr inbounds [20 x i8], [20 x i8]* %174, i64 0, i64 %180
  %182 = load i8, i8* %181, align 1
  %183 = sext i8 %182 to i32
  %184 = icmp eq i32 %183, 108
  br i1 %184, label %185, label %232

185:                                              ; preds = %171
  %186 = load i32, i32* %3, align 4
  %187 = sext i32 %186 to i64
  %188 = getelementptr inbounds [50 x [20 x i8]], [50 x [20 x i8]]* %1, i64 0, i64 %187
  %189 = load i32, i32* %3, align 4
  %190 = sext i32 %189 to i64
  %191 = getelementptr inbounds [50 x i32], [50 x i32]* %6, i64 0, i64 %190
  %192 = load i32, i32* %191, align 4
  %193 = sub nsw i32 %192, 1
  %194 = sext i32 %193 to i64
  %195 = getelementptr inbounds [20 x i8], [20 x i8]* %188, i64 0, i64 %194
  %196 = load i8, i8* %195, align 1
  %197 = sext i8 %196 to i32
  %198 = icmp eq i32 %197, 121
  br i1 %198, label %199, label %232

199:                                              ; preds = %185
  store i32 0, i32* %5, align 4
  br label %200

200:                                              ; preds = %222, %199
  %201 = load i32, i32* %5, align 4
  %202 = load i32, i32* %3, align 4
  %203 = sext i32 %202 to i64
  %204 = getelementptr inbounds [50 x i32], [50 x i32]* %6, i64 0, i64 %203
  %205 = load i32, i32* %204, align 4
  %206 = sub nsw i32 %205, 2
  %207 = icmp slt i32 %201, %206
  br i1 %207, label %208, label %225

208:                                              ; preds = %200
  %209 = load i32, i32* %3, align 4
  %210 = sext i32 %209 to i64
  %211 = getelementptr inbounds [50 x [20 x i8]], [50 x [20 x i8]]* %1, i64 0, i64 %210
  %212 = load i32, i32* %5, align 4
  %213 = sext i32 %212 to i64
  %214 = getelementptr inbounds [20 x i8], [20 x i8]* %211, i64 0, i64 %213
  %215 = load i8, i8* %214, align 1
  %216 = load i32, i32* %3, align 4
  %217 = sext i32 %216 to i64
  %218 = getelementptr inbounds [50 x [20 x i8]], [50 x [20 x i8]]* %2, i64 0, i64 %217
  %219 = load i32, i32* %5, align 4
  %220 = sext i32 %219 to i64
  %221 = getelementptr inbounds [20 x i8], [20 x i8]* %218, i64 0, i64 %220
  store i8 %215, i8* %221, align 1
  br label %222

222:                                              ; preds = %208
  %223 = load i32, i32* %5, align 4
  %224 = add nsw i32 %223, 1
  store i32 %224, i32* %5, align 4
  br label %200

225:                                              ; preds = %200
  %226 = load i32, i32* %3, align 4
  %227 = sext i32 %226 to i64
  %228 = getelementptr inbounds [50 x [20 x i8]], [50 x [20 x i8]]* %2, i64 0, i64 %227
  %229 = load i32, i32* %5, align 4
  %230 = sext i32 %229 to i64
  %231 = getelementptr inbounds [20 x i8], [20 x i8]* %228, i64 0, i64 %230
  store i8 0, i8* %231, align 1
  br label %232

232:                                              ; preds = %225, %185, %171
  br label %233

233:                                              ; preds = %232, %164
  br label %234

234:                                              ; preds = %233, %89
  br label %235

235:                                              ; preds = %234
  %236 = load i32, i32* %3, align 4
  %237 = add nsw i32 %236, 1
  store i32 %237, i32* %3, align 4
  br label %31

238:                                              ; preds = %31
  store i32 0, i32* %3, align 4
  br label %239

239:                                              ; preds = %250, %238
  %240 = load i32, i32* %3, align 4
  %241 = load i32, i32* %4, align 4
  %242 = icmp slt i32 %240, %241
  br i1 %242, label %243, label %253

243:                                              ; preds = %239
  %244 = load i32, i32* %3, align 4
  %245 = sext i32 %244 to i64
  %246 = getelementptr inbounds [50 x [20 x i8]], [50 x [20 x i8]]* %2, i64 0, i64 %245
  %247 = getelementptr inbounds [20 x i8], [20 x i8]* %246, i64 0, i64 0
  %248 = call i32 (i8*, ...) @printf(i8* getelementptr inbounds ([3 x i8], [3 x i8]* @.str.1, i64 0, i64 0), i8* %247)
  %249 = call i32 (i8*, ...) @printf(i8* getelementptr inbounds ([2 x i8], [2 x i8]* @.str.2, i64 0, i64 0))
  br label %250

250:                                              ; preds = %243
  %251 = load i32, i32* %3, align 4
  %252 = add nsw i32 %251, 1
  store i32 %252, i32* %3, align 4
  br label %239

253:                                              ; preds = %239
  ret void
}

declare dso_local i32 @__isoc99_scanf(i8*, ...) #1

; Function Attrs: nounwind readonly
declare dso_local i64 @strlen(i8*) #2

declare dso_local i32 @printf(i8*, ...) #1


!llvm.module.flags = !{!0}
!llvm.ident = !{!1}

!0 = !{i32 1, !"wchar_size", i32 4}
!1 = !{!"clang version 10.0.0-4ubuntu1 "}
